; Function Attrs: mustprogress nofree norecurse nosync nounwind willreturn memory(argmem: read) uwtable
define hidden noundef zeroext i1 @_ZNK19OpenColorIO_v2_4dev11RangeOpData6scalesEv(ptr nocapture noundef nonnull readonly align 8 dereferenceable(228) %this) local_unnamed_addr #8 align 2 {
entry:
  %m_offset = getelementptr inbounds i8, ptr %this, i64 208
  %0 = load double, ptr %m_offset, align 8
  %1 = tail call double @llvm.fabs.f64(double %0)
  %cmp = fcmp ogt double %1, 0x3EB0C6F7A0B5ED8D
  br i1 %cmp, label %return, label %if.end

if.end:                                           ; preds = %entry
  %m_scale = getelementptr inbounds i8, ptr %this, i64 200
  %2 = load double, ptr %m_scale, align 8
  %3 = tail call double @llvm.fabs.f64(double %2)
  %cmp.i = fcmp olt double %3, 1.000000e-03
  %div.i = fdiv double 1.000000e+00, %2
  %sub2.i = fsub double 1.000000e+00, %div.i
  %sub.i = fadd double %2, -1.000000e+00
  %sub2.sink.i = select i1 %cmp.i, double %sub.i, double %sub2.i
  %4 = tail call double @llvm.fabs.f64(double %sub2.sink.i)
  %different.0.in.i = fcmp ogt double %4, 0x3EB0C6F7A0B5ED8D
  br label %return

return:                                           ; preds = %if.end, %entry
  %retval.0 = phi i1 [ true, %entry ], [ %different.0.in.i, %if.end ]
  ret i1 %retval.0
}